; Function Attrs: mustprogress nofree norecurse nosync nounwind willreturn uwtable
define void @_ZTv0_n32_N5arrow2io21FixedSizeBufferWriter5CloseEv(ptr noalias nocapture writeonly sret(%"class.arrow::Status") align 8 %agg.result, ptr nocapture noundef readonly %this) unnamed_addr #18 align 2 {
entry:
  %0 = load ptr, ptr %this, align 8
  %1 = getelementptr inbounds i8, ptr %0, i64 -32
  %2 = load i64, ptr %1, align 8
  %3 = getelementptr inbounds i8, ptr %this, i64 %2
  tail call void @llvm.experimental.noalias.scope.decl(metadata !82)
  %impl_.i = getelementptr inbounds i8, ptr %3, i64 16
  %4 = load ptr, ptr %impl_.i, align 8, !noalias !82
  tail call void @llvm.experimental.noalias.scope.decl(metadata !85)
  %is_open_.i.i = getelementptr inbounds i8, ptr %4, i64 80
  store i8 0, ptr %is_open_.i.i, align 8, !noalias !88
  store ptr null, ptr %agg.result, align 8, !alias.scope !89
  ret void
}